target datalayout = "e-m:e-p270:32:32-p271:32:32-p272:64:64-i64:64-i128:128-f80:128-n8:16:32:64-S128"
target triple = "x86_64-pc-linux-gnu"

%class.G1AllocRegion = type <{ ptr, ptr, i32, [4 x i8], ptr, i32, [4 x i8] }>

@_ZN13G1AllocRegion13_dummy_regionE = hidden global ptr null, align 8
@.str.14 = private unnamed_addr constant [10 x i8] c"releasing\00", align 1
@.str.15 = private unnamed_addr constant [9 x i8] c"released\00", align 1

; Function Attrs: mustprogress nounwind uwtable
define linkonce_odr hidden void @_ZN13G1AllocRegion5traceEPKcmmmPP12HeapWordImpl(ptr noundef nonnull align 8 dereferenceable(36) %0, ptr noundef %1, i64 noundef %2, i64 noundef %3, i64 noundef %4, ptr noundef %5) #1 comdat align 2 {
  %7 = alloca ptr, align 8
  %8 = alloca ptr, align 8
  %9 = alloca i64, align 8
  %10 = alloca i64, align 8
  %11 = alloca i64, align 8
  %12 = alloca ptr, align 8
  store ptr %0, ptr %7, align 8
  store ptr %1, ptr %8, align 8
  store i64 %2, ptr %9, align 8
  store i64 %3, ptr %10, align 8
  store i64 %4, ptr %11, align 8
  store ptr %5, ptr %12, align 8
  ret void
}

; Function Attrs: mustprogress nounwind uwtable
define hidden noundef ptr @_ZN13G1AllocRegion7releaseEv(ptr noundef nonnull align 8 dereferenceable(36) %0) unnamed_addr #1 align 2 {
  %2 = alloca ptr, align 8
  %3 = alloca ptr, align 8
  store ptr %0, ptr %2, align 8
  %4 = load ptr, ptr %2, align 8
  call void @_ZN13G1AllocRegion5traceEPKcmmmPP12HeapWordImpl(ptr noundef nonnull align 8 dereferenceable(36) %4, ptr noundef @.str.14, i64 noundef 0, i64 noundef 0, i64 noundef 0, ptr noundef null)
  %5 = getelementptr inbounds %class.G1AllocRegion, ptr %4, i32 0, i32 1
  %6 = load volatile ptr, ptr %5, align 8
  store ptr %6, ptr %3, align 8
  %7 = load ptr, ptr %4, align 8
  %8 = getelementptr inbounds ptr, ptr %7, i64 0
  %9 = load ptr, ptr %8, align 8
  %10 = call noundef i64 %9(ptr noundef nonnull align 8 dereferenceable(36) %4, i1 noundef zeroext false)
  br label %11

11:                                               ; preds = %1
  br label %12

12:                                               ; preds = %11
  %13 = getelementptr inbounds %class.G1AllocRegion, ptr %4, i32 0, i32 1
  store volatile ptr null, ptr %13, align 8
  call void @_ZN13G1AllocRegion5traceEPKcmmmPP12HeapWordImpl(ptr noundef nonnull align 8 dereferenceable(36) %4, ptr noundef @.str.15, i64 noundef 0, i64 noundef 0, i64 noundef 0, ptr noundef null)
  %14 = load ptr, ptr %3, align 8
  %15 = load ptr, ptr @_ZN13G1AllocRegion13_dummy_regionE, align 8
  %16 = icmp eq ptr %14, %15
  br i1 %16, label %17, label %18

17:                                               ; preds = %12
  br label %20

18:                                               ; preds = %12
  %19 = load ptr, ptr %3, align 8
  br label %20

20:                                               ; preds = %18, %17
  %21 = phi ptr [ null, %17 ], [ %19, %18 ]
  ret ptr %21
}