; Function Attrs: mustprogress nounwind uwtable
define hidden noundef ptr @_ZN13G1AllocRegion7releaseEv(ptr noundef nonnull align 8 dereferenceable(36) %0) unnamed_addr #1 align 2 {
  %2 = getelementptr inbounds i8, ptr %0, i64 8
  %3 = load volatile ptr, ptr %2, align 8
  %4 = load ptr, ptr %0, align 8
  %5 = load ptr, ptr %4, align 8
  %6 = tail call noundef i64 %5(ptr noundef nonnull align 8 dereferenceable(36) %0, i1 noundef zeroext false) #12
  store volatile ptr null, ptr %2, align 8
  %7 = load ptr, ptr @_ZN13G1AllocRegion13_dummy_regionE, align 8
  %8 = icmp eq ptr %3, %7
  %9 = select i1 %8, ptr null, ptr %3
  ret ptr %9
}